Certificate:
    Data:
        Version: 3 (0x2)
        Serial Number:
            55:27:c6:da:db:15:90:4a:1b:e9:79:d6:69:2a:39:a3
        Signature Algorithm: sha256WithRSAEncryption
        Issuer: CN=Easy-RSA CA
        Validity
            Not Before: May 20 00:53:32 2020 GMT
            Not After : May  5 00:53:32 2023 GMT
        Subject: CN=server1
        Subject Public Key Info:
            Public Key Algorithm: rsaEncryption
                RSA Public-Key: (2048 bit)
                Modulus:
                    00:d0:1d:ff:38:db:bf:be:6f:2d:9c:46:90:0c:ef:
                    88:0e:9d:58:ff:f2:c9:50:86:93:e9:69:3c:d8:b9:
                    35:58:2a:07:3d:67:60:f5:57:1f:c5:05:17:2e:11:
                    3d:3b:2a:3f:db:5a:f2:fc:05:bd:9e:b5:36:54:32:
                    a5:61:bb:21:22:a2:f7:7e:e9:1f:f8:78:27:88:c1:
                    8c:fa:c7:74:0a:21:a6:0c:ea:f5:c1:0e:40:46:98:
                    42:71:b1:c1:a6:3b:21:ec:d1:bc:07:1d:6f:19:e0:
                    19:ad:02:26:73:10:63:89:f8:7b:42:c1:06:a2:f7:
                    7f:53:76:c2:ad:d2:29:4a:31:64:a7:3c:37:25:66:
                    08:bb:42:61:55:88:15:fc:38:df:e2:16:bd:56:44:
                    aa:71:62:f9:6d:51:5c:d5:cd:2d:b5:7b:25:b0:bf:
                    07:bf:05:0a:3a:95:08:67:55:2b:d4:43:59:04:4d:
                    bd:cb:f3:db:fc:1e:9b:6d:91:a7:ff:08:72:ee:c2:
                    a8:19:b2:fc:71:53:11:e7:52:12:cc:04:5d:9f:16:
                    6d:32:a4:6a:db:84:db:ec:a1:9e:80:db:e7:d6:4a:
                    ef:b3:86:68:91:3f:61:42:9f:fe:78:f2:77:d4:1a:
                    41:bb:a9:ac:5e:a4:91:29:0c:35:4c:c9:8c:0a:7f:
                    dc:d5
                Exponent: 65537 (0x10001)
        X509v3 extensions:
            X509v3 Basic Constraints: 
                CA:FALSE
            X509v3 Subject Key Identifier: 
                F2:1B:63:54:65:5B:0E:C7:EF:43:94:22:E3:C3:CA:F0:46:2F:B2:B6
            X509v3 Authority Key Identifier: 
                keyid:68:61:DE:C9:6E:CA:BD:C7:FA:69:94:1D:E0:26:90:71:91:D7:BA:83
                DirName:/CN=Easy-RSA CA
                serial:77:45:80:84:FF:7E:C0:2B:63:71:FD:41:69:ED:07:75:EB:69:A3:63

            X509v3 Extended Key Usage: 
                TLS Web Server Authentication
            X509v3 Key Usage: 
                Digital Signature, Key Encipherment
            X509v3 Subject Alternative Name: 
                DNS:server1
    Signature Algorithm: sha256WithRSAEncryption
         55:8e:f8:a0:f3:0f:7a:9a:88:1c:07:94:ea:ae:10:e2:c0:bc:
         1c:79:6e:7b:07:67:94:3f:d3:d0:a7:77:02:39:13:61:17:2a:
         67:5c:a4:27:53:ad:ee:42:be:0c:16:d7:4e:53:fc:21:83:a7:
         26:27:40:06:4d:4a:fa:e0:5e:27:1e:a3:89:46:b1:f9:61:33:
         23:ac:26:c2:af:f6:8b:10:3b:b3:9c:10:44:63:85:8e:fd:53:
         35:f1:97:1b:65:2b:aa:1a:ed:b0:6b:e6:08:b2:d4:36:16:77:
         42:7d:90:88:37:82:09:01:e6:c5:d9:c1:12:ef:d5:32:d4:c9:
         9d:e8:a0:79:58:75:e0:44:b4:29:23:e4:bf:90:c3:05:e8:5f:
         d8:cb:a7:da:e0:54:72:9c:c1:ce:2e:09:f1:4e:7a:ff:90:d2:
         18:49:90:d2:1d:dc:d6:1a:d8:52:ac:29:a0:09:c8:96:d2:14:
         94:b9:4c:33:71:a7:3e:23:6b:ea:95:0a:89:06:86:4f:f8:6d:
         1a:b7:09:0b:18:bd:95:5a:75:54:59:cd:4d:c0:60:c3:ce:01:
         66:5b:e1:bd:0c:4e:24:c2:c4:8c:9c:07:87:d8:79:6b:17:02:
         95:68:57:b2:3c:95:0b:9a:16:d2:cb:26:ca:e5:71:b1:27:56:
         b8:b3:c9:20
-----BEGIN CERTIFICATE-----
MIIDaTCCAlGgAwIBAgIQVSfG2tsVkEob6XnWaSo5ozANBgkqhkiG9w0BAQsFADAW
MRQwEgYDVQQDDAtFYXN5LVJTQSBDQTAeFw0yMDA1MjAwMDUzMzJaFw0yMzA1MDUw
MDUzMzJaMBIxEDAOBgNVBAMMB3NlcnZlcjEwggEiMA0GCSqGSIb3DQEBAQUAA4IB
DwAwggEKAoIBAQDQHf8427++by2cRpAM74gOnVj/8slQhpPpaTzYuTVYKgc9Z2D1
Vx/FBRcuET07Kj/bWvL8Bb2etTZUMqVhuyEiovd+6R/4eCeIwYz6x3QKIaYM6vXB
DkBGmEJxscGmOyHs0bwHHW8Z4BmtAiZzEGOJ+HtCwQai939TdsKt0ilKMWSnPDcl
Zgi7QmFViBX8ON/iFr1WRKpxYvltUVzVzS21eyWwvwe/BQo6lQhnVSvUQ1kETb3L
89v8Hpttkaf/CHLuwqgZsvxxUxHnUhLMBF2fFm0ypGrbhNvsoZ6A2+fWSu+zhmiR
P2FCn/548nfUGkG7qaxepJEpDDVMyYwKf9zVAgMBAAGjgbYwgbMwCQYDVR0TBAIw
ADAdBgNVHQ4EFgQU8htjVGVbDsfvQ5Qi48PK8EYvsrYwUQYDVR0jBEowSIAUaGHe
yW7Kvcf6aZQd4CaQcZHXuoOhGqQYMBYxFDASBgNVBAMMC0Vhc3ktUlNBIENBghR3
RYCE/37AK2Nx/UFp7Qd162mjYzATBgNVHSUEDDAKBggrBgEFBQcDATALBgNVHQ8E
BAMCBaAwEgYDVR0RBAswCYIHc2VydmVyMTANBgkqhkiG9w0BAQsFAAOCAQEAVY74
oPMPepqIHAeU6q4Q4sC8HHluewdnlD/T0Kd3AjkTYRcqZ1ykJ1Ot7kK+DBbXTlP8
IYOnJidABk1K+uBeJx6jiUax+WEzI6wmwq/2ixA7s5wQRGOFjv1TNfGXG2Urqhrt
sGvmCLLUNhZ3Qn2QiDeCCQHmxdnBEu/VMtTJneigeVh14ES0KSPkv5DDBehf2Mun
2uBUcpzBzi4J8U56/5DSGEmQ0h3c1hrYUqwpoAnIltIUlLlMM3GnPiNr6pUKiQaG
T/htGrcJCxi9lVp1VFnNTcBgw84BZlvhvQxOJMLEjJwHh9h5axcClWhXsjyVC5oW
0ssmyuVxsSdWuLPJIA==
-----END CERTIFICATE-----
